target datalayout = "e-m:e-p270:32:32-p271:32:32-p272:64:64-i64:64-i128:128-f80:128-n8:16:32:64-S128"
target triple = "x86_64-pc-linux-gnu"

%class.rational = type { %class.mpq }
%class.mpq = type { %class.mpz, %class.mpz }
%class.mpz = type { i32, i8, ptr }
%class.symbol = type { ptr }
%"class.datalog::interval_relation_plugin" = type { %"class.datalog::relation_plugin.base", %class.scoped_dependency_manager, %class.old_interval, %class.arith_util }
%"class.datalog::relation_plugin.base" = type <{ %"class.datalog::tr_infrastructure<datalog::relation_traits>::plugin_object", i32 }>
%"class.datalog::tr_infrastructure<datalog::relation_traits>::plugin_object" = type { ptr, i32, %class.symbol, ptr }
%class.scoped_dependency_manager = type { [8 x i8], %"class.scoped_dependency_manager<void *>::config::allocator", %class.dependency_manager }
%"class.scoped_dependency_manager<void *>::config::allocator" = type { %class.region }
%class.region = type { ptr, ptr, ptr, ptr, ptr }
%class.dependency_manager = type { ptr, ptr, %class.ptr_vector }
%class.ptr_vector = type { %class.vector }
%class.vector = type { ptr }
%class.old_interval = type { ptr, %class.ext_numeral, %class.ext_numeral, i8, i8, ptr, ptr }
%class.ext_numeral = type { i32, %class.rational }
%class.arith_util = type { ptr, ptr }
%class.vector.63 = type { ptr }
%class.ast = type { i32, i32, i32, i32 }
%class.decl = type { %class.ast, %class.symbol, ptr }
%class.decl_info = type <{ i32, i32, %class.vector.74, i8, [7 x i8] }>
%class.vector.74 = type { ptr }

; Function Attrs: mustprogress nounwind uwtable
define linkonce_odr hidden noundef i32 @_ZNK9decl_info13get_decl_kindEv(ptr noundef nonnull align 8 dereferenceable(17) %0) #7 comdat align 2 {
  %2 = alloca ptr, align 8
  store ptr %0, ptr %2, align 8, !tbaa !275
  %3 = load ptr, ptr %2, align 8
  %4 = getelementptr inbounds nuw %class.decl_info, ptr %3, i32 0, i32 1
  %5 = load i32, ptr %4, align 4, !tbaa !280
  ret i32 %5
}

; Function Attrs: mustprogress nounwind uwtable
define linkonce_odr hidden noundef i32 @_ZNK9decl_info13get_family_idEv(ptr noundef nonnull align 8 dereferenceable(17) %0) #7 comdat align 2 {
  %2 = alloca ptr, align 8
  store ptr %0, ptr %2, align 8, !tbaa !275
  %3 = load ptr, ptr %2, align 8
  %4 = getelementptr inbounds nuw %class.decl_info, ptr %3, i32 0, i32 0
  %5 = load i32, ptr %4, align 8, !tbaa !276
  ret i32 %5
}

; Function Attrs: mustprogress uwtable
define linkonce_odr hidden noundef i32 @_ZNK4decl13get_decl_kindEv(ptr noundef nonnull align 8 dereferenceable(32) %0) #4 comdat align 2 {
  %2 = alloca ptr, align 8
  store ptr %0, ptr %2, align 8, !tbaa !270
  %3 = load ptr, ptr %2, align 8
  %4 = getelementptr inbounds nuw %class.decl, ptr %3, i32 0, i32 2
  %5 = load ptr, ptr %4, align 8, !tbaa !272
  %6 = icmp eq ptr %5, null
  br i1 %6, label %7, label %8

7:                                                ; preds = %1
  br label %12

8:                                                ; preds = %1
  %9 = getelementptr inbounds nuw %class.decl, ptr %3, i32 0, i32 2
  %10 = load ptr, ptr %9, align 8, !tbaa !272
  %11 = call noundef i32 @_ZNK9decl_info13get_decl_kindEv(ptr noundef nonnull align 8 dereferenceable(17) %10)
  br label %12

12:                                               ; preds = %8, %7
  %13 = phi i32 [ -1, %7 ], [ %11, %8 ]
  ret i32 %13
}

; Function Attrs: mustprogress uwtable
define linkonce_odr hidden noundef i32 @_ZNK4decl13get_family_idEv(ptr noundef nonnull align 8 dereferenceable(32) %0) #4 comdat align 2 {
  %2 = alloca ptr, align 8
  store ptr %0, ptr %2, align 8, !tbaa !270
  %3 = load ptr, ptr %2, align 8
  %4 = getelementptr inbounds nuw %class.decl, ptr %3, i32 0, i32 2
  %5 = load ptr, ptr %4, align 8, !tbaa !272
  %6 = icmp eq ptr %5, null
  br i1 %6, label %7, label %8

7:                                                ; preds = %1
  br label %12

8:                                                ; preds = %1
  %9 = getelementptr inbounds nuw %class.decl, ptr %3, i32 0, i32 2
  %10 = load ptr, ptr %9, align 8, !tbaa !272
  %11 = call noundef i32 @_ZNK9decl_info13get_family_idEv(ptr noundef nonnull align 8 dereferenceable(17) %10)
  br label %12

12:                                               ; preds = %8, %7
  %13 = phi i32 [ -1, %7 ], [ %11, %8 ]
  ret i32 %13
}

; Function Attrs: mustprogress uwtable
define linkonce_odr hidden noundef zeroext i1 @_ZNK4sort10is_sort_ofEii(ptr noundef nonnull align 8 dereferenceable(32) %0, i32 noundef %1, i32 noundef %2) #4 comdat align 2 {
  %4 = alloca ptr, align 8
  %5 = alloca i32, align 4
  %6 = alloca i32, align 4
  store ptr %0, ptr %4, align 8, !tbaa !34
  store i32 %1, ptr %5, align 4, !tbaa !33
  store i32 %2, ptr %6, align 4, !tbaa !33
  %7 = load ptr, ptr %4, align 8
  %8 = call noundef i32 @_ZNK4decl13get_family_idEv(ptr noundef nonnull align 8 dereferenceable(32) %7)
  %9 = load i32, ptr %5, align 4, !tbaa !33
  %10 = icmp eq i32 %8, %9
  br i1 %10, label %11, label %15

11:                                               ; preds = %3
  %12 = call noundef i32 @_ZNK4decl13get_decl_kindEv(ptr noundef nonnull align 8 dereferenceable(32) %7)
  %13 = load i32, ptr %6, align 4, !tbaa !33
  %14 = icmp eq i32 %12, %13
  br label %15

15:                                               ; preds = %11, %3
  %16 = phi i1 [ false, %3 ], [ %14, %11 ]
  ret i1 %16
}

; Function Attrs: inlinehint mustprogress uwtable
define linkonce_odr hidden noundef zeroext i1 @_Z10is_sort_ofPK4sortii(ptr noundef %0, i32 noundef %1, i32 noundef %2) #8 comdat {
  %4 = alloca ptr, align 8
  %5 = alloca i32, align 4
  %6 = alloca i32, align 4
  store ptr %0, ptr %4, align 8, !tbaa !34
  store i32 %1, ptr %5, align 4, !tbaa !33
  store i32 %2, ptr %6, align 4, !tbaa !33
  %7 = load ptr, ptr %4, align 8, !tbaa !34
  %8 = load i32, ptr %5, align 4, !tbaa !33
  %9 = load i32, ptr %6, align 4, !tbaa !33
  %10 = call noundef zeroext i1 @_ZNK4sort10is_sort_ofEii(ptr noundef nonnull align 8 dereferenceable(32) %7, i32 noundef %8, i32 noundef %9)
  ret i1 %10
}

; Function Attrs: mustprogress uwtable
define linkonce_odr hidden noundef zeroext i1 @_ZNK17arith_recognizers7is_realEPK4sort(ptr noundef nonnull align 1 dereferenceable(1) %0, ptr noundef %1) #4 comdat align 2 {
  %3 = alloca ptr, align 8
  %4 = alloca ptr, align 8
  store ptr %0, ptr %3, align 8, !tbaa !44
  store ptr %1, ptr %4, align 8, !tbaa !34
  %5 = load ptr, ptr %4, align 8, !tbaa !34
  %6 = call noundef zeroext i1 @_Z10is_sort_ofPK4sortii(ptr noundef %5, i32 noundef 5, i32 noundef 0)
  ret i1 %6
}

; Function Attrs: mustprogress uwtable
define linkonce_odr hidden noundef zeroext i1 @_ZNK17arith_recognizers6is_intEPK4sort(ptr noundef nonnull align 1 dereferenceable(1) %0, ptr noundef %1) #4 comdat align 2 {
  %3 = alloca ptr, align 8
  %4 = alloca ptr, align 8
  store ptr %0, ptr %3, align 8, !tbaa !44
  store ptr %1, ptr %4, align 8, !tbaa !34
  %5 = load ptr, ptr %4, align 8, !tbaa !34
  %6 = call noundef zeroext i1 @_Z10is_sort_ofPK4sortii(ptr noundef %5, i32 noundef 5, i32 noundef 1)
  ret i1 %6
}

; Function Attrs: mustprogress nounwind uwtable
define linkonce_odr hidden noundef nonnull align 8 dereferenceable(8) ptr @_ZNK6vectorIP4sortLb0EjEixEj(ptr noundef nonnull align 8 dereferenceable(8) %0, i32 noundef %1) #7 comdat align 2 {
  %3 = alloca ptr, align 8
  %4 = alloca i32, align 4
  store ptr %0, ptr %3, align 8, !tbaa !38
  store i32 %1, ptr %4, align 4, !tbaa !33
  %5 = load ptr, ptr %3, align 8
  %6 = getelementptr inbounds nuw %class.vector.63, ptr %5, i32 0, i32 0
  %7 = load ptr, ptr %6, align 8, !tbaa !40
  %8 = load i32, ptr %4, align 4, !tbaa !33
  %9 = zext i32 %8 to i64
  %10 = getelementptr inbounds nuw ptr, ptr %7, i64 %9
  ret ptr %10
}

; Function Attrs: mustprogress nounwind uwtable
define linkonce_odr hidden noundef i32 @_ZNK6vectorIP4sortLb0EjE4sizeEv(ptr noundef nonnull align 8 dereferenceable(8) %0) #7 comdat align 2 {
  %2 = alloca i32, align 4
  %3 = alloca ptr, align 8
  store ptr %0, ptr %3, align 8, !tbaa !38
  %4 = load ptr, ptr %3, align 8
  %5 = getelementptr inbounds nuw %class.vector.63, ptr %4, i32 0, i32 0
  %6 = load ptr, ptr %5, align 8, !tbaa !40
  %7 = icmp eq ptr %6, null
  br i1 %7, label %8, label %9

8:                                                ; preds = %1
  store i32 0, ptr %2, align 4
  br label %14

9:                                                ; preds = %1
  %10 = getelementptr inbounds nuw %class.vector.63, ptr %4, i32 0, i32 0
  %11 = load ptr, ptr %10, align 8, !tbaa !40
  %12 = getelementptr inbounds i32, ptr %11, i64 -1
  %13 = load i32, ptr %12, align 4, !tbaa !33
  store i32 %13, ptr %2, align 4
  br label %14

14:                                               ; preds = %9, %8
  %15 = load i32, ptr %2, align 4
  ret i32 %15
}

; Function Attrs: mustprogress uwtable
define hidden noundef zeroext i1 @_ZN7datalog24interval_relation_plugin20can_handle_signatureERKNS_18relation_signatureE(ptr noundef nonnull align 8 dereferenceable(240) %0, ptr noundef nonnull align 8 dereferenceable(8) %1) unnamed_addr #4 align 2 {
  %3 = alloca i1, align 1
  %4 = alloca ptr, align 8
  %5 = alloca ptr, align 8
  %6 = alloca i32, align 4
  %7 = alloca i32, align 4
  store ptr %0, ptr %4, align 8, !tbaa !3
  store ptr %1, ptr %5, align 8, !tbaa !31
  %8 = load ptr, ptr %4, align 8
  call void @llvm.lifetime.start.p0(i64 4, ptr %6) #3
  store i32 0, ptr %6, align 4, !tbaa !33
  br label %9

9:                                                ; preds = %31, %2
  %10 = load i32, ptr %6, align 4, !tbaa !33
  %11 = load ptr, ptr %5, align 8, !tbaa !31
  %12 = call noundef i32 @_ZNK6vectorIP4sortLb0EjE4sizeEv(ptr noundef nonnull align 8 dereferenceable(8) %11)
  %13 = icmp ult i32 %10, %12
  br i1 %13, label %15, label %14

14:                                               ; preds = %9
  store i32 2, ptr %7, align 4
  br label %34

15:                                               ; preds = %9
  %16 = getelementptr inbounds nuw %"class.datalog::interval_relation_plugin", ptr %8, i32 0, i32 3
  %17 = load ptr, ptr %5, align 8, !tbaa !31
  %18 = load i32, ptr %6, align 4, !tbaa !33
  %19 = call noundef nonnull align 8 dereferenceable(8) ptr @_ZNK6vectorIP4sortLb0EjEixEj(ptr noundef nonnull align 8 dereferenceable(8) %17, i32 noundef %18)
  %20 = load ptr, ptr %19, align 8, !tbaa !34
  %21 = call noundef zeroext i1 @_ZNK17arith_recognizers6is_intEPK4sort(ptr noundef nonnull align 1 dereferenceable(1) %16, ptr noundef %20)
  br i1 %21, label %30, label %22

22:                                               ; preds = %15
  %23 = getelementptr inbounds nuw %"class.datalog::interval_relation_plugin", ptr %8, i32 0, i32 3
  %24 = load ptr, ptr %5, align 8, !tbaa !31
  %25 = load i32, ptr %6, align 4, !tbaa !33
  %26 = call noundef nonnull align 8 dereferenceable(8) ptr @_ZNK6vectorIP4sortLb0EjEixEj(ptr noundef nonnull align 8 dereferenceable(8) %24, i32 noundef %25)
  %27 = load ptr, ptr %26, align 8, !tbaa !34
  %28 = call noundef zeroext i1 @_ZNK17arith_recognizers7is_realEPK4sort(ptr noundef nonnull align 1 dereferenceable(1) %23, ptr noundef %27)
  br i1 %28, label %30, label %29

29:                                               ; preds = %22
  store i1 false, ptr %3, align 1
  store i32 1, ptr %7, align 4
  br label %34

30:                                               ; preds = %22, %15
  br label %31

31:                                               ; preds = %30
  %32 = load i32, ptr %6, align 4, !tbaa !33
  %33 = add i32 %32, 1
  store i32 %33, ptr %6, align 4, !tbaa !33
  br label %9, !llvm.loop !36

34:                                               ; preds = %29, %14
  call void @llvm.lifetime.end.p0(i64 4, ptr %6) #3
  %35 = load i32, ptr %7, align 4
  switch i32 %35, label %39 [
    i32 2, label %36
    i32 1, label %37
  ]

36:                                               ; preds = %34
  store i1 true, ptr %3, align 1
  br label %37

37:                                               ; preds = %36, %34
  %38 = load i1, ptr %3, align 1
  ret i1 %38

39:                                               ; preds = %34
  unreachable
}