; Function Attrs: mustprogress nofree norecurse nosync nounwind willreturn memory(read, inaccessiblemem: none) uwtable
define hidden noundef zeroext i1 @_ZN7datalog24interval_relation_plugin20can_handle_signatureERKNS_18relation_signatureE(ptr nonnull readnone align 8 captures(none) %0, ptr noundef nonnull readonly align 8 captures(none) dereferenceable(8) %1) unnamed_addr #6 align 2 {
  %3 = load ptr, ptr %1, align 8, !tbaa !30
  %4 = icmp eq ptr %3, null
  br i1 %4, label %_ZNK17arith_recognizers7is_realEPK4sort.exit.thread, label %.split

.split:                                           ; preds = %2
  %5 = getelementptr inbounds i8, ptr %3, i64 -4
  %6 = load i32, ptr %5, align 4, !tbaa !33
  %7 = icmp eq i32 %6, 0
  br i1 %7, label %_ZNK17arith_recognizers7is_realEPK4sort.exit.thread, label %.lr.ph.preheader

.lr.ph.preheader:                                 ; preds = %.split
  %wide.trip.count = zext i32 %6 to i64
  br label %.lr.ph

.lr.ph:                                           ; preds = %.lr.ph.preheader, %_ZNK6vectorIP4sortLb0EjE4sizeEv.exit
  %indvars.iv = phi i64 [ 0, %.lr.ph.preheader ], [ %indvars.iv.next, %_ZNK6vectorIP4sortLb0EjE4sizeEv.exit ]
  %8 = getelementptr inbounds nuw ptr, ptr %3, i64 %indvars.iv
  %9 = load ptr, ptr %8, align 8, !tbaa !34
  %10 = getelementptr inbounds nuw i8, ptr %9, i64 24
  %11 = load ptr, ptr %10, align 8, !tbaa !36
  %12 = icmp eq ptr %11, null
  br i1 %12, label %_ZNK17arith_recognizers7is_realEPK4sort.exit.thread, label %_ZNK4decl13get_family_idEv.exit.thread.i.i.i

_ZNK4decl13get_family_idEv.exit.thread.i.i.i:     ; preds = %.lr.ph
  %13 = load i32, ptr %11, align 8, !tbaa !40
  %14 = icmp eq i32 %13, 5
  br i1 %14, label %_ZNK17arith_recognizers6is_intEPK4sort.exit, label %_ZNK17arith_recognizers7is_realEPK4sort.exit.thread

_ZNK17arith_recognizers6is_intEPK4sort.exit:      ; preds = %_ZNK4decl13get_family_idEv.exit.thread.i.i.i
  %15 = getelementptr inbounds nuw i8, ptr %11, i64 4
  %16 = load i32, ptr %15, align 4, !tbaa !45
  %switch = icmp ult i32 %16, 2
  br i1 %switch, label %_ZNK6vectorIP4sortLb0EjE4sizeEv.exit, label %_ZNK17arith_recognizers7is_realEPK4sort.exit.thread

_ZNK6vectorIP4sortLb0EjE4sizeEv.exit:             ; preds = %_ZNK17arith_recognizers6is_intEPK4sort.exit
  %indvars.iv.next = add nuw nsw i64 %indvars.iv, 1
  %exitcond.not = icmp eq i64 %indvars.iv.next, %wide.trip.count
  br i1 %exitcond.not, label %_ZNK17arith_recognizers7is_realEPK4sort.exit.thread, label %.lr.ph, !llvm.loop !46

_ZNK17arith_recognizers7is_realEPK4sort.exit.thread: ; preds = %_ZNK17arith_recognizers6is_intEPK4sort.exit, %_ZNK4decl13get_family_idEv.exit.thread.i.i.i, %.lr.ph, %_ZNK6vectorIP4sortLb0EjE4sizeEv.exit, %.split, %2
  %.us-phi = phi i1 [ true, %2 ], [ true, %.split ], [ true, %_ZNK6vectorIP4sortLb0EjE4sizeEv.exit ], [ false, %.lr.ph ], [ false, %_ZNK4decl13get_family_idEv.exit.thread.i.i.i ], [ false, %_ZNK17arith_recognizers6is_intEPK4sort.exit ]
  ret i1 %.us-phi
}